
out.elf:     file format elf32-littlearm

Contents of section .isr_vector:
 8000000 00000220 88010008 00000000 00000000  ... ............
 8000010 00000000 00000000 00000000 00000000  ................
 8000020 00000000 00000000 00000000 00000000  ................
 8000030 00000000 00000000 00000000 8c010008  ................
 8000040 00000000 00000000 00000000 00000000  ................
 8000050 00000000 00000000 00000000 00000000  ................
 8000060 00000000 00000000 00000000 00000000  ................
 8000070 00000000 00000000 00000000 00000000  ................
 8000080 00000000 00000000 00000000 00000000  ................
 8000090 00000000 00000000 00000000 00000000  ................
 80000a0 00000000 00000000 00000000 00000000  ................
 80000b0 00000000 00000000 00000000 00000000  ................
 80000c0 00000000 00000000 00000000 00000000  ................
 80000d0 00000000 00000000 00000000 00000000  ................
 80000e0 00000000 00000000 00000000 00000000  ................
 80000f0 00000000 00000000 00000000 00000000  ................
 8000100 00000000 00000000 00000000 00000000  ................
 8000110 00000000 00000000 00000000 00000000  ................
 8000120 00000000 00000000 00000000 00000000  ................
 8000130 00000000 00000000 00000000 00000000  ................
 8000140 00000000 00000000 00000000 00000000  ................
 8000150 00000000 00000000 00000000 00000000  ................
 8000160 00000000 00000000 00000000 00000000  ................
 8000170 00000000 00000000 00000000 00000000  ................
 8000180 00000000 00000000 00f012f8           ............    
Contents of section .init:
 800018c f8b500bf                             ....            
Contents of section .fini:
 8000190 f8b500bf                             ....            
Contents of section .text.sum:
 8000194 80b483b0 00af7860 39607a68 3b681344  ......x`9`zh;h.D
 80001a4 18460c37 bd465df8 047b7047           .F.7.F]..{pG    
Contents of section .text.main:
 80001b0 80b584b0 00af0323 fb600523 bb60fa68  .......#.`.#.`.h
 80001c0 bb681344 7b60fa68 bb68d31a 7b60b968  .h.D{`.h.h..{`.h
 80001d0 f868fff7 dfff7860 00231846 1037bd46  .h....x`.#.F.7.F
 80001e0 80bd                                 ..              
Contents of section .ARM.attributes:
 0000 412f0000 00616561 62690001 25000000  A/...aeabi..%...
 0010 0537452d 4d00060d 074d0902 0a061204  .7E-M....M......
 0020 14011501 17031801 1a011b01 1c012201  ..............".
Contents of section .comment:
 0000 4743433a 2028474e 55204172 6d20456d  GCC: (GNU Arm Em
 0010 62656464 65642054 6f6f6c63 6861696e  bedded Toolchain
 0020 2031302d 32303230 2d71342d 6d616a6f   10-2020-q4-majo
 0030 72292031 302e322e 31203230 32303131  r) 10.2.1 202011
 0040 30332028 72656c65 61736529 00        03 (release).   
Contents of section .debug_info:
 0000 a0000000 04000000 00000401 0d060000  ................
 0010 0ce00000 00a51600 00000000 00000000  ................
 0020 00000000 00000000 00024423 00000107  ..........D#....
 0030 056b0000 00b00100 08320000 00019c6b  .k.......2.....k
 0040 00000003 78000109 096b0000 00029174  ....x....k.....t
 0050 03790001 0a096b00 00000291 70037a00  .y....k.....p.z.
 0060 010b096b 00000002 916c0004 0405696e  ...k.....l....in
 0070 74000573 756d0001 04056b00 00009401  t..sum....k.....
 0080 00081c00 0000019c 06780001 040d6b00  .........x....k.
 0090 00000291 74067900 0104146b 00000002  ....t.y....k....
 00a0 91700000 22000000 02007c00 00000401  .p..".....|.....
 00b0 57000000 00000008 8c010008 ef2c0000  W............,..
 00c0 a5160000 f92c0000 0180               .....,....      
Contents of section .debug_abbrev:
 0000 01110125 0e130b03 0e1b0e55 17110110  ...%.......U....
 0010 17994217 0000022e 013f1903 0e3a0b3b  ..B......?...:.;
 0020 0b390b49 13110112 06401896 42190113  .9.I.....@..B...
 0030 00000334 0003083a 0b3b0b39 0b491302  ...4...:.;.9.I..
 0040 18000004 24000b0b 3e0b0308 0000052e  ....$...>.......
 0050 013f1903 083a0b3b 0b390b27 19491311  .?...:.;.9.'.I..
 0060 01120640 18974219 00000605 0003083a  ...@..B........:
 0070 0b3b0b39 0b491302 18000000 01110010  .;.9.I..........
 0080 06110112 01030e1b 0e250e13 05000000  .........%......
Contents of section .debug_aranges:
 0000 24000000 02000000 00000400 00000000  $...............
 0010 94010008 1c000000 b0010008 32000000  ............2...
 0020 00000000 00000000 1c000000 0200a400  ................
 0030 00000400 00000000 00000008 8c010000  ................
 0040 00000000 00000000                    ........        
Contents of section .debug_ranges:
 0000 94010008 b0010008 b0010008 e2010008  ................
 0010 00000000 00000000                    ........        
Contents of section .debug_macro:
 0000 04000200 00000007 11000000 03000104  ................
 0010 00040000 0500cd18 00000500 af230000  .............#..
 0020 0500ad1a 00000500 e0050000 05003724  ..............7$
 0030 00000500 fd0a0000 05007702 00000500  ..........w.....
 0040 ec190000 05008614 00000500 16070000  ................
 0050 05000205 00000500 a2180000 05004d04  ..............M.
 0060 00000500 de240000 0500ff18 00000500  .....$..........
 0070 33170000 05000228 00000500 d8180000  3......(........
 0080 05001021 00000500 1f030000 0500020f  ...!............
 0090 00000500 d8190000 05005503 00000500  ..........U.....
 00a0 fa230000 05009616 00000500 750f0000  .#..........u...
 00b0 0500da0f 00000500 8b030000 0500b81d  ................
 00c0 00000500 7f050000 0500851b 00000500  ................
 00d0 06220000 05009826 00000500 60040000  .".....&....`...
 00e0 05001d0d 00000500 48190000 05001328  ........H......(
 00f0 00000500 1d250000 05003203 00000500  .....%....2.....
 0100 641c0000 05009d2b 00000500 e91f0000  d......+........
 0110 05008904 00000500 941e0000 05006611  ..............f.
 0120 00000500 27210000 0500b510 00000500  ....'!..........
 0130 c9210000 0500d028 00000500 5f210000  .!.....(...._!..
 0140 0500e714 00000500 a60b0000 0500a621  ...............!
 0150 00000500 1b260000 0500a129 00000500  .....&.....)....
 0160 fb1c0000 05000904 00000500 840c0000  ................
 0170 05008510 00000500 d2270000 05001d08  .........'......
 0180 00000500 6b000000 0500c712 00000500  ....k...........
 0190 ee1e0000 0500f124 00000500 9e250000  .......$.....%..
 01a0 0500e408 00000500 3e130000 0500ac06  ........>.......
 01b0 00000500 941d0000 05003604 00000500  ..........6.....
 01c0 63190000 05003f11 00000500 f6200000  c.....?...... ..
 01d0 0500681f 00000500 03200000 05003d1a  ..h...... ....=.
 01e0 00000500 9e0a0000 05004007 00000500  ..........@.....
 01f0 a5190000 05004421 00000500 de220000  ......D!....."..
 0200 0500401c 00000500 aa010000 0500d810  ..@.............
 0210 00000500 3d1e0000 05007822 00000500  ....=.....x"....
 0220 d01b0000 0500e00d 00000500 63280000  ............c(..
 0230 0500772b 00000500 67050000 0500ae14  ..w+....g.......
 0240 00000500 25000000 0500f41b 00000500  ....%...........
 0250 571d0000 0500750b 00000500 7c190000  W.....u.....|...
 0260 0500231e 00000500 520b0000 05005514  ..#.....R.....U.
 0270 00000500 68140000 0500261b 00000500  ....h.....&.....
 0280 19180000 05002405 00000500 3f080000  ......$.....?...
 0290 05002e14 00000500 f2050000 05001505  ................
 02a0 00000500 7e080000 0500432b 00000500  ....~.....C+....
 02b0 3b2a0000 05000226 00000500 aa130000  ;*.....&........
 02c0 0500b120 00000500 7b1e0000 0500390b  ... ....{.....9.
 02d0 00000500 2b010000 0500172c 00000500  ....+......,....
 02e0 0f030000 0500a21f 00000500 320f0000  ............2...
 02f0 0500e60b 00000500 10230000 05006e03  .........#....n.
 0300 00000500 e0290000 0500ee09 00000500  .....)..........
 0310 c8000000 05006618 00000500 12190000  ......f.........
 0320 0500a709 00000500 bb2c0000 0500bb0f  .........,......
 0330 00000500 a7120000 05007e20 00000500  ..........~ ....
 0340 54200000 05004924 00000500 db160000  T ....I$........
 0350 05009f2a 00000500 700a0000 05000e1b  ...*....p.......
 0360 00000500 7c130000 05008527 00000500  ....|......'....
 0370 c2250000 0500110c 00000500 1e120000  .%..............
 0380 0500e009 00000500 f7290000 05002327  .........)....#'
 0390 00000500 ca240000 05008311 00000500  .....$..........
 03a0 0d1e0000 05004c26 00000500 611a0000  ......L&....a...
 03b0 05009c15 00000500 7f210000 0500d01c  .........!......
 03c0 00000500 a62c0000 0500cb07 00000500  .....,..........
 03d0 ea270000 0500cf09 00000500 f5030000  .'..............
 03e0 05003715 00000500 92010000 0500ff12  ..7.............
 03f0 00000500 ea180000 05001229 00000500  ...........)....
 0400 ea2b0000 05003102 00000500 db020000  .+....1.........
 0410 0500500d 00000500 31280000 05009a28  ..P.....1(.....(
 0420 00000500 bb2a0000 0500a627 00000500  .....*.....'....
 0430 3a0c0000 05006f17 00000500 b6040000  :.....o.........
 0440 0500421b 00000500 eb210000 0500251f  ..B......!....%.
 0450 00000500 6d2a0000 0500282a 00000500  ....m*....(*....
 0460 1c200000 05000d17 00000500 472c0000  . ..........G,..
 0470 0500d01a 00000500 75250000 0500330e  ........u%....3.
 0480 00000500 012c0000 0500f61a 00000500  .....,..........
 0490 d01f0000 05000601 00000500 55130000  ............U...
 04a0 05007b12 00000500 a6050000 0500e912  ..{.............
 04b0 00000500 e42a0000 05009d10 00000500  .....*..........
 04c0 c6040000 0500e01d 00000500 70260000  ............p&..
 04d0 0500e207 00000500 8d220000 05000209  ........."......
 04e0 00000500 52000000 0500b90a 00000500  ....R...........
 04f0 4d080000 05005105 00000500 05070000  M.....Q.........
 0500 0500c826 00000500 4d100000 05008c00  ...&....M.......
 0510 00000500 600e0000 05003d12 00000500  ....`.....=.....
 0520 791f0000 05006816 00000500 7f0d0000  y.....h.........
 0530 05007f24 00000500 19090000 05006513  ...$..........e.
 0540 00000500 9b0c0000 05000615 00000500  ................
 0550 1b160000 0500de15 00000500 3c270000  ............<'..
 0560 0500ac1e 00000500 b0000000 0500852a  ...............*
 0570 00000500 78010000 05007423 00000500  ....x.....t#....
 0580 45250000 05002929 00000500 57270000  E%....))....W'..
 0590 0500b40c 00000500 92130000 05008729  ...............)
 05a0 00000500 f7280000 0500521c 00000500  .....(....R.....
 05b0 861c0000 0500a20e 00000500 090b0000  ................
 05c0 05004923 00000500 9e200000 0500ef25  ..I#..... .....%
 05d0 00000500 60020000 0500a00f 00000500  ....`...........
 05e0 84180000 0500e226 00000500 bf1a0000  .......&........
 05f0 0500a80d 00000500 231a0000 05001c24  ........#......$
 0600 00000500 18110000 05002c13 00000500  ..........,.....
 0610 8a1a0000 0500d32c 00000500 5e1e0000  .......,....^...
 0620 0500d414 00000500 c1050000 05004a1f  ..............J.
 0630 00000500 102b0000 0500670c 00000500  .....+....g.....
 0640 91190000 0500c40b 00000500 07120000  ................
 0650 05004822 00000500 870b0000 05001a14  ..H"............
 0660 00000500 1e020000 0500b52b 00000500  ...........+....
 0670 7d090000 0500211c 00000500 5b1b0000  }.....!.....[...
 0680 0500f106 00000500 210c0000 0500a503  ........!.......
 0690 00000500 88020000 05000b0d 00000500  ................
 06a0 790e0000 0500bc22 00000500 4a170000  y......"....J...
 06b0 05006910 00000500 932c0000 05001913  ..i......,......
 06c0 00000500 d8250000 0500150f 00000500  .....%..........
 06d0 800a0000 0500d313 00000500 210e0000  ............!...
 06e0 0500b719 00000500 b21b0000 0500f015  ................
 06f0 00000500 87280000 05009412 00000500  .....(..........
 0700 520c0000 05001b22 00000500 040e0000  R......"........
 0710 05008915 00000500 8d0f0000 05005907  ..............Y.
 0720 00000500 3e180000 05002723 00000500  ....>.....'#....
 0730 4d1a0000 05000614 00000500 a9070000  M...............
 0740 0500d30a 00000500 e7000000 0500632b  ..............c+
 0750 00000500 ee040000 05001710 00000500  ................
 0760 99110000 0500c311 00000500 b3260000  .............&..
 0770 0500bf06 00000500 97080000 05007d07  ..............}.
 0780 00000500 722c0000 05007929 00000500  ....r,....y)....
 0790 5b010000 0500c620 00000500 981c0000  [...... ........
 07a0 05003b1f 00000500 d21d0000 0500231d  ..;...........#.
 07b0 00000500 3e260000 05003420 00000500  ....>&....4 ....
 07c0 84170000 05004f1e 00000500 65230000  ......O.....e#..
 07d0 05004420 00000500 09110000 05009f23  ..D ...........#
 07e0 00000500 1c010000 05000b16 00000500  ................
 07f0 69010000 05005716 00000500 d70b0000  i.....W.........
 0800 05006a22 00000500 32160000 05003e10  ..j"....2.....>.
 0810 00000500 6e090000 0500310a 00000500  ....n.....1.....
 0820 660f0000 05004300 00000500 6a290000  f.....C.....j)..
 0830 05009217 00000500 321d0000 05004514  ........2.....E.
 0840 00000500 c00e0000 0500480f 00000500  ..........H.....
 0850 0d080000 0500e503 00000500 13270000  .............'..
 0860 05003c05 00000500 b91c0000 05002015  ..<........... .
 0870 00000500 f7110000 05007504 00000500  ..........u.....
 0880 49090000 05000c0a 00000500 56120000  I...........V...
 0890 0500ef16 00000500 eb100000 05004615  ..............F.
 08a0 00000500 c8230000 0500e513 00000500  .....#..........
 08b0 f4260000 0500c30d 00000500 c0150000  .&..............
 08c0 0500ab24 00000500 d9170000 0500ef22  ...$..........."
 08d0 00000500 f70f0000 0500fd17 00000500  ................
 08e0 63240000 0500701b 00000500 47010000  c$....p.....G...
 08f0 05008b0e 00000500 d1030000 0500bd27  ...............'
 0900 00000500 fc2a0000 0600c602 00000500  .....*..........
 0910 e80e0000 0600a204 00000600 d02a0000  .............*..
 0920 0600b008 00000600 08020000 05006008  ..............`.
 0930 00000600 e21b0000 0600d108 00000600  ................
 0940 332c0000 0500411d 00000500 2b110000  3,....A.....+...
 0950 0600d406 00000500 df200000 0500400a  ......... ....@.
 0960 00000500 da010000 0600c617 00000500  ................
 0970 ca290000 05006517 00000600 32120000  .)....e.....2...
 0980 0500d305 00000500 79280000 0500a117  ........y(......
 0990 00000500 c41f0000 0500a300 00000500  ................
 09a0 580f0000 06007415 00000500 40160000  X.....t.....@...
 09b0 05006815 00000500 3b220000 06005621  ..h.....;"....V!
 09c0 00000500 c0070000 0600f101 00000600  ................
 09d0 4f2a0000 0600a81d 00000600 e60c0000  O*..............
 09e0 06000000 00000600 29070000 0500d62b  ........)......+
 09f0 00000600 3a010000 0600c608 00000600  ....:...........
 0a00 9f1a0000 05005429 00000500 302b0000  ......T)....0+..
 0a10 0500b225 00000500 220b0000 06007408  ...%....".....t.
 0a20 00000500 d00e0000 0500101f 00000500  ................
 0a30 a9020000 0600e211 00000500 b5180000  ................
 0a40 0600c214 00000600 c1010000 06000e2a  ...............*
 0a50 00000600 c91e0000 06006f1d 00000600  ..........o.....
 0a60 2a190000 0500021a 00000500 bc170000  *...............
 0a70 05005c0a 00000500 310b0000 0500d520  ..\.....1...... 
 0a80 00000500 ea230000 0500a61c 00000500  .....#..........
 0a90 7e140000 05000e24 00000500 390d0000  ~......$....9...
 0aa0 00                                   .               
Contents of section .debug_line:
 0000 53000000 03001d00 00000201 fb0e0d00  S...............
 0010 01010101 00000001 00000100 6d61696e  ............main
 0020 2e630000 00000005 16000502 94010008  .c..............
 0030 15050e59 05013d02 06000101 050b0005  ...Y..=.........
 0040 02b00100 08180507 422f2f4b 05094c05  ........B//K..L.
 0050 01670204 00010136 00000003 00200000  .g.....6..... ..
 0060 000201fb 0e0d0001 01010100 00000100  ................
 0070 00010073 74617274 75702e73 00000000  ...startup.s....
 0080 00000502 88010008 03f00001 02020001  ................
 0090 01                                   .               
Contents of section .debug_str:
 0000 5f5f4152 4d5f4645 41545552 455f4650  __ARM_FEATURE_FP
 0010 31365f56 4543544f 525f4152 4954484d  16_VECTOR_ARITHM
 0020 45544943 005f5f53 49475f41 544f4d49  ETIC.__SIG_ATOMI
 0030 435f4d41 585f5f20 30783766 66666666  C_MAX__ 0x7fffff
 0040 6666005f 5f54415f 46424954 5f5f2036  ff.__TA_FBIT__ 6
 0050 33005f5f 464c5433 325f4841 535f494e  3.__FLT32_HAS_IN
 0060 46494e49 54595f5f 2031005f 5f55494e  FINITY__ 1.__UIN
 0070 545f4641 5354385f 54595045 5f5f2075  T_FAST8_TYPE__ u
 0080 6e736967 6e656420 696e7400 5f5f464c  nsigned int.__FL
 0090 5436345f 4d41585f 4558505f 5f203130  T64_MAX_EXP__ 10
 00a0 3234005f 5f746875 6d62325f 5f203100  24.__thumb2__ 1.
 00b0 5f5f464c 54333258 5f4d4158 5f455850  __FLT32X_MAX_EXP
 00c0 5f5f2031 30323400 5f5f494e 545f4641  __ 1024.__INT_FA
 00d0 53543136 5f574944 54485f5f 20333200  ST16_WIDTH__ 32.
 00e0 6d61696e 2e63005f 5f554c41 4343554d  main.c.__ULACCUM
 00f0 5f455053 494c4f4e 5f5f2030 7831502d  _EPSILON__ 0x1P-
 0100 3332554c 4b005f5f 464c5433 325f4d41  32ULK.__FLT32_MA
 0110 4e545f44 49475f5f 20323400 5f5f5553  NT_DIG__ 24.__US
 0120 515f4942 49545f5f 2030005f 5f55494e  Q_IBIT__ 0.__UIN
 0130 54385f43 28632920 63005f5f 41524d5f  T8_C(c) c.__ARM_
 0140 4e454f4e 5f5f005f 5f53495a 454f465f  NEON__.__SIZEOF_
 0150 57494e54 5f545f5f 2034005f 5f51515f  WINT_T__ 4.__QQ_
 0160 49424954 5f5f2030 005f5f55 44515f49  IBIT__ 0.__UDQ_I
 0170 4249545f 5f203000 5f5f464c 54333258  BIT__ 0.__FLT32X
 0180 5f444543 494d414c 5f444947 5f5f2031  _DECIMAL_DIG__ 1
 0190 37005f5f 44424c5f 4d494e5f 4558505f  7.__DBL_MIN_EXP_
 01a0 5f20282d 31303231 29005f5f 4c4f4e47  _ (-1021).__LONG
 01b0 5f4c4f4e 475f5749 4454485f 5f203634  _LONG_WIDTH__ 64
 01c0 005f5f41 524d5f46 45415455 52455f43  .__ARM_FEATURE_C
 01d0 44455f43 4f50524f 43005f5f 41524d5f  DE_COPROC.__ARM_
 01e0 53495a45 4f465f57 43484152 5f542034  SIZEOF_WCHAR_T 4
 01f0 005f5f41 524d5f46 5031365f 464f524d  .__ARM_FP16_FORM
 0200 41545f49 45454500 5f5f4152 4d5f4645  AT_IEEE.__ARM_FE
 0210 41545552 455f434f 4d504c45 58005f5f  ATURE_COMPLEX.__
 0220 4c4c4652 4143545f 49424954 5f5f2030  LLFRACT_IBIT__ 0
 0230 005f5f44 424c5f4d 41585f5f 20282864  .__DBL_MAX__ ((d
 0240 6f75626c 6529312e 37393736 39333133  ouble)1.79769313
 0250 34383632 33313537 652b3330 384c2900  48623157e+308L).
 0260 5f5f5553 46524143 545f4d49 4e5f5f20  __USFRACT_MIN__ 
 0270 302e3055 4852005f 5f474e55 435f4d49  0.0UHR.__GNUC_MI
 0280 4e4f525f 5f203200 5f5f554c 4c465241  NOR__ 2.__ULLFRA
 0290 43545f45 5053494c 4f4e5f5f 20307831  CT_EPSILON__ 0x1
 02a0 502d3634 554c4c52 005f5f41 524d5f41  P-64ULLR.__ARM_A
 02b0 534d5f53 594e5441 585f554e 49464945  SM_SYNTAX_UNIFIE
 02c0 445f5f20 31005f5f 41524d5f 46454154  D__ 1.__ARM_FEAT
 02d0 5552455f 43525950 544f005f 5f44424c  URE_CRYPTO.__DBL
 02e0 5f4e4f52 4d5f4d41 585f5f20 2828646f  _NORM_MAX__ ((do
 02f0 75626c65 29312e37 39373639 33313334  uble)1.797693134
 0300 38363233 31353765 2b333038 4c29005f  8623157e+308L)._
 0310 5f55494e 5431365f 43286329 2063005f  _UINT16_C(c) c._
 0320 5f53495a 454f465f 53484f52 545f5f20  _SIZEOF_SHORT__ 
 0330 32005f5f 43484152 31365f54 5950455f  2.__CHAR16_TYPE_
 0340 5f207368 6f727420 756e7369 676e6564  _ short unsigned
 0350 20696e74 005f5f53 495a454f 465f4c4f   int.__SIZEOF_LO
 0360 4e475f44 4f55424c 455f5f20 38005f5f  NG_DOUBLE__ 8.__
 0370 494e545f 46415354 385f4d41 585f5f20  INT_FAST8_MAX__ 
 0380 30783766 66666666 6666005f 5f4f5244  0x7fffffff.__ORD
 0390 45525f42 49475f45 4e444941 4e5f5f20  ER_BIG_ENDIAN__ 
 03a0 34333231 005f5f55 4c4c4652 4143545f  4321.__ULLFRACT_
 03b0 4d41585f 5f203058 46464646 46464646  MAX__ 0XFFFFFFFF
 03c0 46464646 46464646 502d3634 554c4c52  FFFFFFFFP-64ULLR
 03d0 005f5f41 524d5f46 45415455 52455f44  .__ARM_FEATURE_D
 03e0 53502031 005f5f55 54415f46 4249545f  SP 1.__UTA_FBIT_
 03f0 5f203634 005f5f44 424c5f4d 414e545f  _ 64.__DBL_MANT_
 0400 4449475f 5f203533 005f5f55 494e545f  DIG__ 53.__UINT_
 0410 4c454153 5436345f 54595045 5f5f206c  LEAST64_TYPE__ l
 0420 6f6e6720 6c6f6e67 20756e73 69676e65  ong long unsigne
 0430 6420696e 74005f5f 494e545f 4d41585f  d int.__INT_MAX_
 0440 5f203078 37666666 66666666 005f5f41  _ 0x7fffffff.__A
 0450 544f4d49 435f5245 4c454153 45203300  TOMIC_RELEASE 3.
 0460 5f5f5054 52444946 465f5459 50455f5f  __PTRDIFF_TYPE__
 0470 20696e74 005f5f43 4841525f 554e5349   int.__CHAR_UNSI
 0480 474e4544 5f5f2031 005f5f49 4e543136  GNED__ 1.__INT16
 0490 5f545950 455f5f20 73686f72 7420696e  _TYPE__ short in
 04a0 74005f5f 41524d5f 46454154 5552455f  t.__ARM_FEATURE_
 04b0 5152444d 58005f5f 4c44424c 5f444947  QRDMX.__LDBL_DIG
 04c0 5f5f2031 35005f5f 464c5433 325f4d41  __ 15.__FLT32_MA
 04d0 585f5f20 332e3430 32383233 34363633  X__ 3.4028234663
 04e0 38353238 3836652b 33384633 32005f5f  852886e+38F32.__
 04f0 4c4c4143 43554d5f 49424954 5f5f2033  LLACCUM_IBIT__ 3
 0500 32005f5f 41544f4d 49435f53 45515f43  2.__ATOMIC_SEQ_C
 0510 53542035 005f5f49 4e543136 5f432863  ST 5.__INT16_C(c
 0520 29206300 5f5f494e 545f4c45 41535438  ) c.__INT_LEAST8
 0530 5f4d4158 5f5f2030 78376600 5f5f5245  _MAX__ 0x7f.__RE
 0540 47495354 45525f50 52454649 585f5f20  GISTER_PREFIX__ 
 0550 005f5f46 4c543634 5f4d414e 545f4449  .__FLT64_MANT_DI
 0560 475f5f20 3533005f 5f55494e 544d4158  G__ 53.__UINTMAX
 0570 5f432863 29206320 23232055 4c4c005f  _C(c) c ## ULL._
 0580 5f425954 455f4f52 4445525f 5f205f5f  _BYTE_ORDER__ __
 0590 4f524445 525f4c49 54544c45 5f454e44  ORDER_LITTLE_END
 05a0 49414e5f 5f005f5f 464c5433 325f4d49  IAN__.__FLT32_MI
 05b0 4e5f3130 5f455850 5f5f2028 2d333729  N_10_EXP__ (-37)
 05c0 005f5f4c 46524143 545f4942 49545f5f  .__LFRACT_IBIT__
 05d0 2030005f 5f41524d 5f415243 48203700   0.__ARM_ARCH 7.
 05e0 5f5f5354 44435f55 54465f33 325f5f20  __STDC_UTF_32__ 
 05f0 31005f5f 494e545f 4c454153 5431365f  1.__INT_LEAST16_
 0600 4d41585f 5f203078 37666666 00474e55  MAX__ 0x7fff.GNU
 0610 20433137 2031302e 322e3120 32303230   C17 10.2.1 2020
 0620 31313033 20287265 6c656173 6529202d  1103 (release) -
 0630 6d637075 3d636f72 7465782d 6d34202d  mcpu=cortex-m4 -
 0640 6d746875 6d62202d 6d666c6f 61742d61  mthumb -mfloat-a
 0650 62693d68 61726420 2d6d6670 753d6670  bi=hard -mfpu=fp
 0660 76342d73 702d6431 36202d6d 61726368  v4-sp-d16 -march
 0670 3d61726d 7637652d 6d2b6670 202d6733  =armv7e-m+fp -g3
 0680 202d4f30 202d666d 65737361 67652d6c   -O0 -fmessage-l
 0690 656e6774 683d3020 2d666675 6e637469  ength=0 -ffuncti
 06a0 6f6e2d73 65637469 6f6e7300 5f5f5343  on-sections.__SC
 06b0 4841525f 4d41585f 5f203078 3766005f  HAR_MAX__ 0x7f._
 06c0 5f554c4c 41434355 4d5f4942 49545f5f  _ULLACCUM_IBIT__
 06d0 20333200 5f5f4152 4d5f4645 41545552   32.__ARM_FEATUR
 06e0 455f4e55 4d455249 435f4d41 584d494e  E_NUMERIC_MAXMIN
 06f0 005f5f55 4c4c4652 4143545f 49424954  .__ULLFRACT_IBIT
 0700 5f5f2030 005f5f46 4c543634 5f444947  __ 0.__FLT64_DIG
 0710 5f5f2031 35005f5f 41544f4d 49435f52  __ 15.__ATOMIC_R
 0720 454c4158 45442030 005f5f41 524d5f46  ELAXED 0.__ARM_F
 0730 45415455 52455f46 5031365f 464d4c00  EATURE_FP16_FML.
 0740 5f5f5349 5a455f4d 41585f5f 20307866  __SIZE_MAX__ 0xf
 0750 66666666 66666655 005f5f4c 41434355  fffffffU.__LACCU
 0760 4d5f4d49 4e5f5f20 282d3058 31503331  M_MIN__ (-0X1P31
 0770 4c4b2d30 58315033 314c4b29 005f5f55  LK-0X1P31LK).__U
 0780 4c4c4143 43554d5f 4d41585f 5f203058  LLACCUM_MAX__ 0X
 0790 46464646 46464646 46464646 46464646  FFFFFFFFFFFFFFFF
 07a0 502d3332 554c4c4b 005f5f55 4c414343  P-32ULLK.__ULACC
 07b0 554d5f4d 494e5f5f 20302e30 554c4b00  UM_MIN__ 0.0ULK.
 07c0 5f5f4152 4d5f4650 2034005f 5f464c54  __ARM_FP 4.__FLT
 07d0 5f484153 5f494e46 494e4954 595f5f20  _HAS_INFINITY__ 
 07e0 31005f5f 464c5433 325f4550 53494c4f  1.__FLT32_EPSILO
 07f0 4e5f5f20 312e3139 32303932 38393535  N__ 1.1920928955
 0800 30373831 3235652d 37463332 005f5f55  078125e-7F32.__U
 0810 44415f49 4249545f 5f203332 005f5f49  DA_IBIT__ 32.__I
 0820 4e545f46 41535436 345f5459 50455f5f  NT_FAST64_TYPE__
 0830 206c6f6e 67206c6f 6e672069 6e74005f   long long int._
 0840 5f494e54 385f4328 63292063 005f5f46  _INT8_C(c) c.__F
 0850 505f4641 53545f46 4d414633 32203100  P_FAST_FMAF32 1.
 0860 5f5f4152 4d5f3332 4249545f 53544154  __ARM_32BIT_STAT
 0870 45203100 5f5f4644 5049435f 5f005f5f  E 1.__FDPIC__.__
 0880 494e545f 4c454153 5431365f 57494454  INT_LEAST16_WIDT
 0890 485f5f20 3136005f 5f554c4c 41434355  H__ 16.__ULLACCU
 08a0 4d5f4d49 4e5f5f20 302e3055 4c4c4b00  M_MIN__ 0.0ULLK.
 08b0 5f5f4152 4d5f4645 41545552 455f444f  __ARM_FEATURE_DO
 08c0 5450524f 44005f5f 41524d5f 4e454f4e  TPROD.__ARM_NEON
 08d0 005f5f41 524d5f46 45415455 52455f43  .__ARM_FEATURE_C
 08e0 4d534500 5f5f5549 4e545054 525f5459  MSE.__UINTPTR_TY
 08f0 50455f5f 20756e73 69676e65 6420696e  PE__ unsigned in
 0900 74005f5f 464c5433 325f4841 535f4445  t.__FLT32_HAS_DE
 0910 4e4f524d 5f5f2031 005f5f46 4c543634  NORM__ 1.__FLT64
 0920 5f44454e 4f524d5f 4d494e5f 5f20342e  _DENORM_MIN__ 4.
 0930 39343036 35363435 38343132 34363534  9406564584124654
 0940 652d3332 34463634 005f5f47 43435f48  e-324F64.__GCC_H
 0950 4156455f 53594e43 5f434f4d 50415245  AVE_SYNC_COMPARE
 0960 5f414e44 5f535741 505f3120 31005f5f  _AND_SWAP_1 1.__
 0970 53415f49 4249545f 5f203136 005f5f4c  SA_IBIT__ 16.__L
 0980 4c465241 43545f4d 41585f5f 20305837  LFRACT_MAX__ 0X7
 0990 46464646 46464646 46464646 46464650  FFFFFFFFFFFFFFFP
 09a0 2d36334c 4c52005f 5f494e54 5f464153  -63LLR.__INT_FAS
 09b0 5436345f 4d41585f 5f203078 37666666  T64_MAX__ 0x7fff
 09c0 66666666 66666666 66666666 4c4c005f  ffffffffffffLL._
 09d0 5f46505f 46415354 5f464d41 46203100  _FP_FAST_FMAF 1.
 09e0 5f5f464c 545f4449 475f5f20 36005f5f  __FLT_DIG__ 6.__
 09f0 494e545f 46415354 31365f4d 41585f5f  INT_FAST16_MAX__
 0a00 20307837 66666666 66666600 5f5f4743   0x7fffffff.__GC
 0a10 435f4841 56455f53 594e435f 434f4d50  C_HAVE_SYNC_COMP
 0a20 4152455f 414e445f 53574150 5f322031  ARE_AND_SWAP_2 1
 0a30 005f5f44 415f4642 49545f5f 20333100  .__DA_FBIT__ 31.
 0a40 5f5f4152 4d5f5349 5a454f46 5f4d494e  __ARM_SIZEOF_MIN
 0a50 494d414c 5f454e55 4d203100 5f5f5553  IMAL_ENUM 1.__US
 0a60 45535f49 4e495446 494e495f 5f203100  ES_INITFINI__ 1.
 0a70 5f5f4743 435f4945 435f3535 39203000  __GCC_IEC_559 0.
 0a80 5f5f5553 41434355 4d5f4550 53494c4f  __USACCUM_EPSILO
 0a90 4e5f5f20 30783150 2d385548 4b005f5f  N__ 0x1P-8UHK.__
 0aa0 50545244 4946465f 4d41585f 5f203078  PTRDIFF_MAX__ 0x
 0ab0 37666666 66666666 005f5f46 4c543332  7fffffff.__FLT32
 0ac0 5f484153 5f515549 45545f4e 414e5f5f  _HAS_QUIET_NAN__
 0ad0 2031005f 5f554c41 4343554d 5f4d4158   1.__ULACCUM_MAX
 0ae0 5f5f2030 58464646 46464646 46464646  __ 0XFFFFFFFFFFF
 0af0 46464646 46502d33 32554c4b 005f5f47  FFFFFP-32ULK.__G
 0b00 4e55435f 5f203130 005f5f53 46524143  NUC__ 10.__SFRAC
 0b10 545f4d41 585f5f20 30583746 502d3748  T_MAX__ 0X7FP-7H
 0b20 52005f5f 41524d5f 45414249 5f5f2031  R.__ARM_EABI__ 1
 0b30 0053544d 33322031 005f5f55 494e545f  .STM32 1.__UINT_
 0b40 4c454153 54385f4d 41585f5f 20307866  LEAST8_MAX__ 0xf
 0b50 66005f5f 494e5436 345f4d41 585f5f20  f.__INT64_MAX__ 
 0b60 30783766 66666666 66666666 66666666  0x7fffffffffffff
 0b70 66664c4c 005f5f49 4e54385f 4d41585f  ffLL.__INT8_MAX_
 0b80 5f203078 3766005f 5f554c46 52414354  _ 0x7f.__ULFRACT
 0b90 5f455053 494c4f4e 5f5f2030 7831502d  _EPSILON__ 0x1P-
 0ba0 3332554c 52005f5f 494e545f 4c454153  32ULR.__INT_LEAS
 0bb0 5433325f 54595045 5f5f206c 6f6e6720  T32_TYPE__ long 
 0bc0 696e7400 5f5f554c 46524143 545f4942  int.__ULFRACT_IB
 0bd0 49545f5f 2030005f 5f555451 5f494249  IT__ 0.__UTQ_IBI
 0be0 545f5f20 30005f5f 55494e54 5f4c4541  T__ 0.__UINT_LEA
 0bf0 53543634 5f4d4158 5f5f2030 78666666  ST64_MAX__ 0xfff
 0c00 66666666 66666666 66666666 66554c4c  fffffffffffffULL
 0c10 005f5f46 4c545f52 41444958 5f5f2032  .__FLT_RADIX__ 2
 0c20 005f5f55 4c4c4652 4143545f 4d494e5f  .__ULLFRACT_MIN_
 0c30 5f20302e 30554c4c 52005f5f 44424c5f  _ 0.0ULLR.__DBL_
 0c40 4841535f 51554945 545f4e41 4e5f5f20  HAS_QUIET_NAN__ 
 0c50 31005f5f 55414343 554d5f4d 494e5f5f  1.__UACCUM_MIN__
 0c60 20302e30 554b005f 5f4c4652 4143545f   0.0UK.__LFRACT_
 0c70 45505349 4c4f4e5f 5f203078 31502d33  EPSILON__ 0x1P-3
 0c80 314c5200 5f5f494e 545f4641 5354385f  1LR.__INT_FAST8_
 0c90 54595045 5f5f2069 6e74005f 5f464c54  TYPE__ int.__FLT
 0ca0 36345f48 41535f49 4e46494e 4954595f  64_HAS_INFINITY_
 0cb0 5f203100 5f5f464c 54333258 5f44454e  _ 1.__FLT32X_DEN
 0cc0 4f524d5f 4d494e5f 5f20342e 39343036  ORM_MIN__ 4.9406
 0cd0 35363435 38343132 34363534 652d3332  564584124654e-32
 0ce0 34463332 78005f5f 41524d5f 46454154  4F32x.__ARM_FEAT
 0cf0 5552455f 46503136 5f534341 4c41525f  URE_FP16_SCALAR_
 0d00 41524954 484d4554 4943005f 5f534143  ARITHMETIC.__SAC
 0d10 43554d5f 46424954 5f5f2037 005f5f57  CUM_FBIT__ 7.__W
 0d20 43484152 5f545950 455f5f20 756e7369  CHAR_TYPE__ unsi
 0d30 676e6564 20696e74 00555345 5f535444  gned int.USE_STD
 0d40 50455249 50485f44 52495645 52203100  PERIPH_DRIVER 1.
 0d50 5f5f4442 4c5f4d49 4e5f5f20 2828646f  __DBL_MIN__ ((do
 0d60 75626c65 29322e32 32353037 33383538  uble)2.225073858
 0d70 35303732 30313465 2d333038 4c29005f  5072014e-308L)._
 0d80 5f464c54 36345f4d 494e5f5f 20322e32  _FLT64_MIN__ 2.2
 0d90 32353037 33383538 35303732 30313465  250738585072014e
 0da0 2d333038 46363400 5f5f4652 4143545f  -308F64.__FRACT_
 0db0 4d494e5f 5f20282d 302e3552 2d302e35  MIN__ (-0.5R-0.5
 0dc0 5229005f 5f474343 5f41544f 4d49435f  R).__GCC_ATOMIC_
 0dd0 494e545f 4c4f434b 5f465245 45203200  INT_LOCK_FREE 2.
 0de0 5f5f494e 544d4158 5f4d4158 5f5f2030  __INTMAX_MAX__ 0
 0df0 78376666 66666666 66666666 66666666  x7ffffffffffffff
 0e00 664c4c00 5f5f5541 4343554d 5f455053  fLL.__UACCUM_EPS
 0e10 494c4f4e 5f5f2030 7831502d 3136554b  ILON__ 0x1P-16UK
 0e20 005f5f41 4343554d 5f494249 545f5f20  .__ACCUM_IBIT__ 
 0e30 3136005f 5f4c4442 4c5f4445 4e4f524d  16.__LDBL_DENORM
 0e40 5f4d494e 5f5f2034 2e393430 36353634  _MIN__ 4.9406564
 0e50 35383431 32343635 34652d33 32344c00  584124654e-324L.
 0e60 5f5f464c 5436345f 4d41585f 31305f45  __FLT64_MAX_10_E
 0e70 58505f5f 20333038 005f5f53 41434355  XP__ 308.__SACCU
 0e80 4d5f4942 49545f5f 2038005f 5f53495a  M_IBIT__ 8.__SIZ
 0e90 454f465f 50545244 4946465f 545f5f20  EOF_PTRDIFF_T__ 
 0ea0 34005f5f 53465241 43545f4d 494e5f5f  4.__SFRACT_MIN__
 0eb0 20282d30 2e354852 2d302e35 48522900   (-0.5HR-0.5HR).
 0ec0 5f5f5553 415f4942 49545f5f 20313600  __USA_IBIT__ 16.
 0ed0 5f5f4152 4d5f4152 43485f45 58545f49  __ARM_ARCH_EXT_I
 0ee0 4449565f 5f203100 5f5f4152 4d5f4645  DIV__ 1.__ARM_FE
 0ef0 41545552 455f554e 414c4947 4e454420  ATURE_UNALIGNED 
 0f00 31005f5f 53495a45 4f465f46 4c4f4154  1.__SIZEOF_FLOAT
 0f10 5f5f2034 005f5f55 53414343 554d5f4d  __ 4.__USACCUM_M
 0f20 41585f5f 20305846 46464650 2d385548  AX__ 0XFFFFP-8UH
 0f30 4b005f5f 55494e54 33325f43 28632920  K.__UINT32_C(c) 
 0f40 63202323 20554c00 5f5f5544 415f4642  c ## UL.__UDA_FB
 0f50 49545f5f 20333200 5f5f5448 554d4245  IT__ 32.__THUMBE
 0f60 4c5f5f20 31005f5f 44415f49 4249545f  L__ 1.__DA_IBIT_
 0f70 5f203332 005f5f42 49474745 53545f41  _ 32.__BIGGEST_A
 0f80 4c49474e 4d454e54 5f5f2038 005f5f4c  LIGNMENT__ 8.__L
 0f90 41434355 4d5f4942 49545f5f 20333200  ACCUM_IBIT__ 32.
 0fa0 5f5f5553 46524143 545f4d41 585f5f20  __USFRACT_MAX__ 
 0fb0 30584646 502d3855 4852005f 5f55494e  0XFFP-8UHR.__UIN
 0fc0 545f4641 5354385f 4d41585f 5f203078  T_FAST8_MAX__ 0x
 0fd0 66666666 66666666 55005f5f 4f524445  ffffffffU.__ORDE
 0fe0 525f4c49 54544c45 5f454e44 49414e5f  R_LITTLE_ENDIAN_
 0ff0 5f203132 3334005f 5f484156 455f5350  _ 1234.__HAVE_SP
 1000 4543554c 4154494f 4e5f5341 46455f56  ECULATION_SAFE_V
 1010 414c5545 2031005f 5f4c4c41 4343554d  ALUE 1.__LLACCUM
 1020 5f4d494e 5f5f2028 2d305831 5033314c  _MIN__ (-0X1P31L
 1030 4c4b2d30 58315033 314c4c4b 29005f5f  LK-0X1P31LLK).__
 1040 53415f46 4249545f 5f203135 005f5f46  SA_FBIT__ 15.__F
 1050 4c543634 5f4d494e 5f31305f 4558505f  LT64_MIN_10_EXP_
 1060 5f20282d 33303729 005f5f53 41434355  _ (-307).__SACCU
 1070 4d5f4550 53494c4f 4e5f5f20 30783150  M_EPSILON__ 0x1P
 1080 2d37484b 005f5f49 4e545f46 41535431  -7HK.__INT_FAST1
 1090 365f5459 50455f5f 20696e74 005f5f46  6_TYPE__ int.__F
 10a0 4c543332 5f444543 494d414c 5f444947  LT32_DECIMAL_DIG
 10b0 5f5f2039 005f5f55 494e5431 365f5459  __ 9.__UINT16_TY
 10c0 50455f5f 2073686f 72742075 6e736967  PE__ short unsig
 10d0 6e656420 696e7400 5f5f5743 4841525f  ned int.__WCHAR_
 10e0 57494454 485f5f20 3332005f 5f474343  WIDTH__ 32.__GCC
 10f0 5f41544f 4d49435f 43484152 5f4c4f43  _ATOMIC_CHAR_LOC
 1100 4b5f4652 45452032 005f5f55 48515f49  K_FREE 2.__UHQ_I
 1110 4249545f 5f203000 5f5f5546 52414354  BIT__ 0.__UFRACT
 1120 5f464249 545f5f20 3136005f 5f41524d  _FBIT__ 16.__ARM
 1130 5f464541 54555245 5f434c5a 2031005f  _FEATURE_CLZ 1._
 1140 5f4c4f4e 475f4c4f 4e475f4d 41585f5f  _LONG_LONG_MAX__
 1150 20307837 66666666 66666666 66666666   0x7ffffffffffff
 1160 6666664c 4c005f5f 494e5436 345f5459  fffLL.__INT64_TY
 1170 50455f5f 206c6f6e 67206c6f 6e672069  PE__ long long i
 1180 6e74005f 5f464c54 5f4d4158 5f31305f  nt.__FLT_MAX_10_
 1190 4558505f 5f203338 005f5f4c 4c414343  EXP__ 38.__LLACC
 11a0 554d5f4d 41585f5f 20305837 46464646  UM_MAX__ 0X7FFFF
 11b0 46464646 46464646 46464650 2d33314c  FFFFFFFFFFFP-31L
 11c0 4c4b005f 5f4c4c41 4343554d 5f455053  LK.__LLACCUM_EPS
 11d0 494c4f4e 5f5f2030 7831502d 33314c4c  ILON__ 0x1P-31LL
 11e0 4b005f5f 41524d5f 46454154 5552455f  K.__ARM_FEATURE_
 11f0 434f5052 4f43005f 5f4e4f5f 494e4c49  COPROC.__NO_INLI
 1200 4e455f5f 2031005f 5f554c46 52414354  NE__ 1.__ULFRACT
 1210 5f4d494e 5f5f2030 2e30554c 52005f5f  _MIN__ 0.0ULR.__
 1220 464c545f 4d414e54 5f444947 5f5f2032  FLT_MANT_DIG__ 2
 1230 34005f5f 41524d5f 41524348 005f5f46  4.__ARM_ARCH.__F
 1240 4c543634 5f444543 494d414c 5f444947  LT64_DECIMAL_DIG
 1250 5f5f2031 37005f5f 4743435f 48415645  __ 17.__GCC_HAVE
 1260 5f53594e 435f434f 4d504152 455f414e  _SYNC_COMPARE_AN
 1270 445f5357 41505f34 2031005f 5f464c54  D_SWAP_4 1.__FLT
 1280 33325f4d 494e5f45 58505f5f 20282d31  32_MIN_EXP__ (-1
 1290 32352900 5f5f5541 4343554d 5f494249  25).__UACCUM_IBI
 12a0 545f5f20 3136005f 5f55494e 545f4641  T__ 16.__UINT_FA
 12b0 53543136 5f4d4158 5f5f2030 78666666  ST16_MAX__ 0xfff
 12c0 66666666 6655005f 5f55494e 545f4641  fffffU.__UINT_FA
 12d0 53543136 5f545950 455f5f20 756e7369  ST16_TYPE__ unsi
 12e0 676e6564 20696e74 005f5f46 4c543332  gned int.__FLT32
 12f0 5f4d4158 5f455850 5f5f2031 3238005f  _MAX_EXP__ 128._
 1300 5f44424c 5f4d494e 5f31305f 4558505f  _DBL_MIN_10_EXP_
 1310 5f20282d 33303729 005f5f55 53414343  _ (-307).__USACC
 1320 554d5f49 4249545f 5f203800 5f5f5546  UM_IBIT__ 8.__UF
 1330 52414354 5f494249 545f5f20 30005f5f  RACT_IBIT__ 0.__
 1340 4758585f 4142495f 56455253 494f4e20  GXX_ABI_VERSION 
 1350 31303134 005f5f46 4c543332 5f444947  1014.__FLT32_DIG
 1360 5f5f2036 005f5f46 4c543634 5f484153  __ 6.__FLT64_HAS
 1370 5f44454e 4f524d5f 5f203100 5f5f464c  _DENORM__ 1.__FL
 1380 545f4556 414c5f4d 4554484f 445f5f20  T_EVAL_METHOD__ 
 1390 30005f5f 464c5433 32585f48 41535f44  0.__FLT32X_HAS_D
 13a0 454e4f52 4d5f5f20 31005f5f 494e545f  ENORM__ 1.__INT_
 13b0 4c454153 5436345f 4d41585f 5f203078  LEAST64_MAX__ 0x
 13c0 37666666 66666666 66666666 66666666  7fffffffffffffff
 13d0 4c4c005f 5f414343 554d5f46 4249545f  LL.__ACCUM_FBIT_
 13e0 5f203135 005f5f47 43435f41 544f4d49  _ 15.__GCC_ATOMI
 13f0 435f5743 4841525f 545f4c4f 434b5f46  C_WCHAR_T_LOCK_F
 1400 52454520 32005f5f 554c4143 43554d5f  REE 2.__ULACCUM_
 1410 49424954 5f5f2033 32005f5f 4c4c4652  IBIT__ 32.__LLFR
 1420 4143545f 46424954 5f5f2036 33005f5f  ACT_FBIT__ 63.__
 1430 494e545f 4c454153 54385f57 49445448  INT_LEAST8_WIDTH
 1440 5f5f2038 005f5f55 53415f46 4249545f  __ 8.__USA_FBIT_
 1450 5f203136 005f5f55 494e5438 5f4d4158  _ 16.__UINT8_MAX
 1460 5f5f2030 78666600 5f5f5549 4e543136  __ 0xff.__UINT16
 1470 5f4d4158 5f5f2030 78666666 66004445  _MAX__ 0xffff.DE
 1480 42554720 31005f5f 56455253 494f4e5f  BUG 1.__VERSION_
 1490 5f202231 302e322e 31203230 32303131  _ "10.2.1 202011
 14a0 30332028 72656c65 61736529 22005f5f  03 (release)".__
 14b0 494e544d 41585f57 49445448 5f5f2036  INTMAX_WIDTH__ 6
 14c0 34005f5f 41524d5f 46454154 5552455f  4.__ARM_FEATURE_
 14d0 43444500 5f5f4c46 52414354 5f464249  CDE.__LFRACT_FBI
 14e0 545f5f20 3331005f 5f494e54 5f4c4541  T__ 31.__INT_LEA
 14f0 53543136 5f545950 455f5f20 73686f72  ST16_TYPE__ shor
 1500 7420696e 74005f5f 464c5436 345f4841  t int.__FLT64_HA
 1510 535f5155 4945545f 4e414e5f 5f203100  S_QUIET_NAN__ 1.
 1520 5f5f474e 55435f53 5444435f 494e4c49  __GNUC_STDC_INLI
 1530 4e455f5f 2031005f 5f44424c 5f444947  NE__ 1.__DBL_DIG
 1540 5f5f2031 35005f5f 4743435f 41544f4d  __ 15.__GCC_ATOM
 1550 49435f43 48415231 365f545f 4c4f434b  IC_CHAR16_T_LOCK
 1560 5f465245 45203200 5f5f4152 4d454c5f  _FREE 2.__ARMEL_
 1570 5f203100 5f5f4152 4d5f4152 43485f49  _ 1.__ARM_ARCH_I
 1580 53415f54 48554d42 005f5f4c 41434355  SA_THUMB.__LACCU
 1590 4d5f4642 49545f5f 20333100 5f5f464c  M_FBIT__ 31.__FL
 15a0 545f4d49 4e5f5f20 312e3137 35343934  T_MIN__ 1.175494
 15b0 33353038 32323238 3735652d 33384600  3508222875e-38F.
 15c0 5f5f4743 435f4154 4f4d4943 5f4c4f4e  __GCC_ATOMIC_LON
 15d0 475f4c4f 434b5f46 52454520 32005f5f  G_LOCK_FREE 2.__
 15e0 464c5433 32585f44 49475f5f 20313500  FLT32X_DIG__ 15.
 15f0 5f5f4143 43554d5f 45505349 4c4f4e5f  __ACCUM_EPSILON_
 1600 5f203078 31502d31 354b005f 5f554451  _ 0x1P-15K.__UDQ
 1610 5f464249 545f5f20 3634005f 5f464c54  _FBIT__ 64.__FLT
 1620 3332585f 4d414e54 5f444947 5f5f2035  32X_MANT_DIG__ 5
 1630 33005f5f 48415f49 4249545f 5f203800  3.__HA_IBIT__ 8.
 1640 5f5f4152 4d5f4152 43485f49 53415f54  __ARM_ARCH_ISA_T
 1650 48554d42 2032005f 5f555451 5f464249  HUMB 2.__UTQ_FBI
 1660 545f5f20 31323800 5f5f464c 5436345f  T__ 128.__FLT64_
 1670 4e4f524d 5f4d4158 5f5f2031 2e373937  NORM_MAX__ 1.797
 1680 36393331 33343836 32333135 37652b33  6931348623157e+3
 1690 30384636 34005f5f 43484152 5f424954  08F64.__CHAR_BIT
 16a0 5f5f2038 002f686f 6d652f64 6f677975  __ 8./home/dogyu
 16b0 6e2f456d 62656464 65645f53 79737465  n/Embedded_Syste
 16c0 6d5f3231 2d312f30 345f6269 745f6d61  m_21-1/04_bit_ma
 16d0 6e697075 6c617469 6f6e005f 5f494e54  nipulation.__INT
 16e0 5054525f 57494454 485f5f20 3332005f  PTR_WIDTH__ 32._
 16f0 5f474343 5f41544f 4d49435f 424f4f4c  _GCC_ATOMIC_BOOL
 1700 5f4c4f43 4b5f4652 45452032 005f5f4c  _LOCK_FREE 2.__L
 1710 44424c5f 4d41585f 5f20312e 37393736  DBL_MAX__ 1.7976
 1720 39333133 34383632 33313537 652b3330  931348623157e+30
 1730 384c005f 5f46494e 4954455f 4d415448  8L.__FINITE_MATH
 1740 5f4f4e4c 595f5f20 30005f5f 53414343  _ONLY__ 0.__SACC
 1750 554d5f4d 41585f5f 20305837 46464650  UM_MAX__ 0X7FFFP
 1760 2d37484b 005f5f61 726d5f5f 2031005f  -7HK.__arm__ 1._
 1770 5f4c4442 4c5f4d41 4e545f44 49475f5f  _LDBL_MANT_DIG__
 1780 20353300 5f5f5451 5f494249 545f5f20   53.__TQ_IBIT__ 
 1790 30005f5f 5548415f 46424954 5f5f2038  0.__UHA_FBIT__ 8
 17a0 005f5f47 43435f41 534d5f46 4c41475f  .__GCC_ASM_FLAG_
 17b0 4f555450 5554535f 5f203100 5f5f454c  OUTPUTS__ 1.__EL
 17c0 465f5f20 31005f5f 41524d5f 41524348  F__ 1.__ARM_ARCH
 17d0 5f50524f 46494c45 005f5f47 43435f41  _PROFILE.__GCC_A
 17e0 544f4d49 435f5445 53545f41 4e445f53  TOMIC_TEST_AND_S
 17f0 45545f54 52554556 414c2031 005f5f47  ET_TRUEVAL 1.__G
 1800 43435f48 4156455f 44574152 46325f43  CC_HAVE_DWARF2_C
 1810 46495f41 534d2031 005f5f55 494e5436  FI_ASM 1.__UINT6
 1820 345f4d41 585f5f20 30786666 66666666  4_MAX__ 0xffffff
 1830 66666666 66666666 6666554c 4c005f5f  ffffffffffULL.__
 1840 4c414343 554d5f4d 41585f5f 20305837  LACCUM_MAX__ 0X7
 1850 46464646 46464646 46464646 46464650  FFFFFFFFFFFFFFFP
 1860 2d33314c 4b005f5f 494e545f 46415354  -31LK.__INT_FAST
 1870 33325f4d 41585f5f 20307837 66666666  32_MAX__ 0x7ffff
 1880 66666600 5f5f5553 46524143 545f4550  fff.__USFRACT_EP
 1890 53494c4f 4e5f5f20 30783150 2d385548  SILON__ 0x1P-8UH
 18a0 52005f5f 41544f4d 49435f41 43515549  R.__ATOMIC_ACQUI
 18b0 52452032 005f5f41 524d5f46 45415455  RE 2.__ARM_FEATU
 18c0 52455f43 4f50524f 43203135 005f5f53  RE_COPROC 15.__S
 18d0 5444435f 5f203100 5f5f5349 5a454f46  TDC__ 1.__SIZEOF
 18e0 5f4c4f4e 475f5f20 34005f5f 44424c5f  _LONG__ 4.__DBL_
 18f0 4d41585f 4558505f 5f203130 3234005f  MAX_EXP__ 1024._
 1900 5f41544f 4d49435f 434f4e53 554d4520  _ATOMIC_CONSUME 
 1910 31005f5f 494e545f 46415354 33325f57  1.__INT_FAST32_W
 1920 49445448 5f5f2033 32005f5f 41524d5f  IDTH__ 32.__ARM_
 1930 42463136 5f464f52 4d41545f 414c5445  BF16_FORMAT_ALTE
 1940 524e4154 49564500 5f5f5749 4e545f54  RNATIVE.__WINT_T
 1950 5950455f 5f20756e 7369676e 65642069  YPE__ unsigned i
 1960 6e74005f 5f4c4f4e 475f4d41 585f5f20  nt.__LONG_MAX__ 
 1970 30783766 66666666 66664c00 5f5f494e  0x7fffffffL.__IN
 1980 5431365f 4d41585f 5f203078 37666666  T16_MAX__ 0x7fff
 1990 005f5f55 4c465241 43545f46 4249545f  .__ULFRACT_FBIT_
 19a0 5f203332 005f5f53 43484152 5f574944  _ 32.__SCHAR_WID
 19b0 54485f5f 2038005f 5f414343 554d5f4d  TH__ 8.__ACCUM_M
 19c0 494e5f5f 20282d30 58315031 354b2d30  IN__ (-0X1P15K-0
 19d0 58315031 354b2900 5f5f5349 5a454f46  X1P15K).__SIZEOF
 19e0 5f444f55 424c455f 5f203800 5f5f474e  _DOUBLE__ 8.__GN
 19f0 55435f50 41544348 4c455645 4c5f5f20  UC_PATCHLEVEL__ 
 1a00 31005f5f 4758585f 54595045 494e464f  1.__GXX_TYPEINFO
 1a10 5f455155 414c4954 595f494e 4c494e45  _EQUALITY_INLINE
 1a20 2030005f 5f465241 43545f4d 41585f5f   0.__FRACT_MAX__
 1a30 20305837 46464650 2d313552 005f5f57   0X7FFFP-15R.__W
 1a40 494e545f 4d494e5f 5f203055 005f5f55  INT_MIN__ 0U.__U
 1a50 4c414343 554d5f46 4249545f 5f203332  LACCUM_FBIT__ 32
 1a60 005f5f46 4c545f4e 4f524d5f 4d41585f  .__FLT_NORM_MAX_
 1a70 5f20332e 34303238 32333436 36333835  _ 3.402823466385
 1a80 32383836 652b3338 46005f5f 55465241  2886e+38F.__UFRA
 1a90 43545f4d 494e5f5f 20302e30 5552005f  CT_MIN__ 0.0UR._
 1aa0 5f41524d 5f4e454f 4e5f4650 005f5f53  _ARM_NEON_FP.__S
 1ab0 5444435f 5554465f 31365f5f 2031005f  TDC_UTF_16__ 1._
 1ac0 5f465241 43545f49 4249545f 5f203000  _FRACT_IBIT__ 0.
 1ad0 5f5f4c44 424c5f4d 494e5f5f 20322e32  __LDBL_MIN__ 2.2
 1ae0 32353037 33383538 35303732 30313465  250738585072014e
 1af0 2d333038 4c005f5f 4c44424c 5f484153  -308L.__LDBL_HAS
 1b00 5f494e46 494e4954 595f5f20 31005f5f  _INFINITY__ 1.__
 1b10 4743435f 4945435f 3535395f 434f4d50  GCC_IEC_559_COMP
 1b20 4c455820 30005f5f 55494e54 33325f4d  LEX 0.__UINT32_M
 1b30 41585f5f 20307866 66666666 66666655  AX__ 0xffffffffU
 1b40 4c005f5f 4c44424c 5f4d494e 5f455850  L.__LDBL_MIN_EXP
 1b50 5f5f2028 2d313032 3129005f 5f554c4c  __ (-1021).__ULL
 1b60 46524143 545f4642 49545f5f 20363400  FRACT_FBIT__ 64.
 1b70 5f5f5349 5a454f46 5f574348 41525f54  __SIZEOF_WCHAR_T
 1b80 5f5f2034 005f5f46 4c4f4154 5f574f52  __ 4.__FLOAT_WOR
 1b90 445f4f52 4445525f 5f205f5f 4f524445  D_ORDER__ __ORDE
 1ba0 525f4c49 54544c45 5f454e44 49414e5f  R_LITTLE_ENDIAN_
 1bb0 5f005f5f 41434355 4d5f4d41 585f5f20  _.__ACCUM_MAX__ 
 1bc0 30583746 46464646 4646502d 31354b00  0X7FFFFFFFP-15K.
 1bd0 5f5f5349 5a455f57 49445448 5f5f2033  __SIZE_WIDTH__ 3
 1be0 32005f5f 41524d5f 46454154 5552455f  2.__ARM_FEATURE_
 1bf0 4d564500 5f5f5349 475f4154 4f4d4943  MVE.__SIG_ATOMIC
 1c00 5f4d494e 5f5f2028 2d5f5f53 49475f41  _MIN__ (-__SIG_A
 1c10 544f4d49 435f4d41 585f5f20 2d203129  TOMIC_MAX__ - 1)
 1c20 005f5f4c 4c465241 43545f45 5053494c  .__LLFRACT_EPSIL
 1c30 4f4e5f5f 20307831 502d3633 4c4c5200  ON__ 0x1P-63LLR.
 1c40 5f5f4c4f 4e475f57 49445448 5f5f2033  __LONG_WIDTH__ 3
 1c50 32005f5f 53465241 43545f46 4249545f  2.__SFRACT_FBIT_
 1c60 5f203700 5f5f4348 41523332 5f545950  _ 7.__CHAR32_TYP
 1c70 455f5f20 6c6f6e67 20756e73 69676e65  E__ long unsigne
 1c80 6420696e 74005f5f 53465241 43545f49  d int.__SFRACT_I
 1c90 4249545f 5f203000 5f5f4851 5f494249  BIT__ 0.__HQ_IBI
 1ca0 545f5f20 30005354 4d333246 34313145  T__ 0.STM32F411E
 1cb0 5f444953 434f2031 005f5f55 5345525f  _DISCO 1.__USER_
 1cc0 4c414245 4c5f5052 45464958 5f5f2000  LABEL_PREFIX__ .
 1cd0 5f5f464c 545f4445 4e4f524d 5f4d494e  __FLT_DENORM_MIN
 1ce0 5f5f2031 2e343031 32393834 36343332  __ 1.40129846432
 1cf0 34383137 31652d34 3546005f 5f55494e  48171e-45F.__UIN
 1d00 545f4c45 41535433 325f5459 50455f5f  T_LEAST32_TYPE__
 1d10 206c6f6e 6720756e 7369676e 65642069   long unsigned i
 1d20 6e74005f 5f44515f 46424954 5f5f2036  nt.__DQ_FBIT__ 6
 1d30 33005f5f 5548415f 49424954 5f5f2038  3.__UHA_IBIT__ 8
 1d40 005f5f41 524d5f46 45415455 52455f4c  .__ARM_FEATURE_L
 1d50 44524558 2037005f 5f534947 5f41544f  DREX 7.__SIG_ATO
 1d60 4d49435f 57494454 485f5f20 3332005f  MIC_WIDTH__ 32._
 1d70 5f41524d 5f464541 54555245 5f424631  _ARM_FEATURE_BF1
 1d80 365f5645 43544f52 5f415249 54484d45  6_VECTOR_ARITHME
 1d90 54494300 5f5f5348 52545f4d 41585f5f  TIC.__SHRT_MAX__
 1da0 20307837 66666600 5f5f4152 4d5f4650   0x7fff.__ARM_FP
 1db0 31365f41 52475300 5f5f4f52 4445525f  16_ARGS.__ORDER_
 1dc0 5044505f 454e4449 414e5f5f 20333431  PDP_ENDIAN__ 341
 1dd0 32005f5f 53515f49 4249545f 5f203000  2.__SQ_IBIT__ 0.
 1de0 5f5f464c 5433325f 4e4f524d 5f4d4158  __FLT32_NORM_MAX
 1df0 5f5f2033 2e343032 38323334 36363338  __ 3.40282346638
 1e00 35323838 36652b33 38463332 005f5f46  52886e+38F32.__F
 1e10 4c545f44 4543494d 414c5f44 49475f5f  LT_DECIMAL_DIG__
 1e20 2039005f 5f494e54 33325f4d 41585f5f   9.__INT32_MAX__
 1e30 20307837 66666666 6666664c 005f5f57   0x7fffffffL.__W
 1e40 494e545f 57494454 485f5f20 3332005f  INT_WIDTH__ 32._
 1e50 5f555151 5f464249 545f5f20 38005f5f  _UQQ_FBIT__ 8.__
 1e60 55465241 43545f45 5053494c 4f4e5f5f  UFRACT_EPSILON__
 1e70 20307831 502d3136 5552005f 5f494e54   0x1P-16UR.__INT
 1e80 5f4c4541 53543634 5f574944 54485f5f  _LEAST64_WIDTH__
 1e90 20363400 5f5f494e 5433325f 54595045   64.__INT32_TYPE
 1ea0 5f5f206c 6f6e6720 696e7400 5f5f464c  __ long int.__FL
 1eb0 54333258 5f4d494e 5f31305f 4558505f  T32X_MIN_10_EXP_
 1ec0 5f20282d 33303729 005f5f41 524d5f46  _ (-307).__ARM_F
 1ed0 45415455 52455f42 4631365f 5343414c  EATURE_BF16_SCAL
 1ee0 41525f41 52495448 4d455449 43005f5f  AR_ARITHMETIC.__
 1ef0 55494e54 5f464153 5433325f 54595045  UINT_FAST32_TYPE
 1f00 5f5f2075 6e736967 6e656420 696e7400  __ unsigned int.
 1f10 5f5f4152 4d5f4645 41545552 455f4944  __ARM_FEATURE_ID
 1f20 49562031 005f5f4c 44424c5f 4d41585f  IV 1.__LDBL_MAX_
 1f30 4558505f 5f203130 3234005f 5f53515f  EXP__ 1024.__SQ_
 1f40 46424954 5f5f2033 31005f5f 4c465241  FBIT__ 31.__LFRA
 1f50 43545f4d 494e5f5f 20282d30 2e354c52  CT_MIN__ (-0.5LR
 1f60 2d302e35 4c522900 5f5f5743 4841525f  -0.5LR).__WCHAR_
 1f70 4d494e5f 5f203055 005f5f46 4c543634  MIN__ 0U.__FLT64
 1f80 5f4d4158 5f5f2031 2e373937 36393331  _MAX__ 1.7976931
 1f90 33343836 32333135 37652b33 30384636  348623157e+308F6
 1fa0 34005f5f 55494e54 5f4c4541 53543332  4.__UINT_LEAST32
 1fb0 5f4d4158 5f5f2030 78666666 66666666  _MAX__ 0xfffffff
 1fc0 66554c00 5f5f7468 756d625f 5f203100  fUL.__thumb__ 1.
 1fd0 5f5f4c44 424c5f48 41535f51 55494554  __LDBL_HAS_QUIET
 1fe0 5f4e414e 5f5f2031 005f5f49 4e54385f  _NAN__ 1.__INT8_
 1ff0 54595045 5f5f2073 69676e65 64206368  TYPE__ signed ch
 2000 6172005f 5f57494e 545f4d41 585f5f20  ar.__WINT_MAX__ 
 2010 30786666 66666666 66665500 5f5f4c44  0xffffffffU.__LD
 2020 424c5f44 4543494d 414c5f44 49475f5f  BL_DECIMAL_DIG__
 2030 20313700 5f5f5451 5f464249 545f5f20   17.__TQ_FBIT__ 
 2040 31323700 5f5f5548 515f4642 49545f5f  127.__UHQ_FBIT__
 2050 20313600 5f5f5549 4e545f46 41535436   16.__UINT_FAST6
 2060 345f4d41 585f5f20 30786666 66666666  4_MAX__ 0xffffff
 2070 66666666 66666666 6666554c 4c005f5f  ffffffffffULL.__
 2080 55494e54 5f464153 5433325f 4d41585f  UINT_FAST32_MAX_
 2090 5f203078 66666666 66666666 55005f5f  _ 0xffffffffU.__
 20a0 55534652 4143545f 46424954 5f5f2038  USFRACT_FBIT__ 8
 20b0 005f5f49 4e543634 5f432863 29206320  .__INT64_C(c) c 
 20c0 2323204c 4c005f5f 48515f46 4249545f  ## LL.__HQ_FBIT_
 20d0 5f203135 0053544d 33324634 2031005f  _ 15.STM32F4 1._
 20e0 5f41524d 5f464541 54555245 5f53494d  _ARM_FEATURE_SIM
 20f0 44333220 31005f5f 57434841 525f4d41  D32 1.__WCHAR_MA
 2100 585f5f20 30786666 66666666 66665500  X__ 0xffffffffU.
 2110 5f5f5349 5a454f46 5f4c4f4e 475f4c4f  __SIZEOF_LONG_LO
 2120 4e475f5f 2038005f 5f55494e 54385f54  NG__ 8.__UINT8_T
 2130 5950455f 5f20756e 7369676e 65642063  YPE__ unsigned c
 2140 68617200 5f5f5348 52545f57 49445448  har.__SHRT_WIDTH
 2150 5f5f2031 36005f5f 41524d5f 4650005f  __ 16.__ARM_FP._
 2160 5f494e54 5f4c4541 5354385f 54595045  _INT_LEAST8_TYPE
 2170 5f5f2073 69676e65 64206368 6172005f  __ signed char._
 2180 5f464c54 5f455053 494c4f4e 5f5f2031  _FLT_EPSILON__ 1
 2190 2e313932 30393238 39353530 37383132  .192092895507812
 21a0 35652d37 46005f5f 494e545f 4c454153  5e-7F.__INT_LEAS
 21b0 5436345f 54595045 5f5f206c 6f6e6720  T64_TYPE__ long 
 21c0 6c6f6e67 20696e74 005f5f55 494e5433  long int.__UINT3
 21d0 325f5459 50455f5f 206c6f6e 6720756e  2_TYPE__ long un
 21e0 7369676e 65642069 6e74005f 5f4c4442  signed int.__LDB
 21f0 4c5f4d49 4e5f3130 5f455850 5f5f2028  L_MIN_10_EXP__ (
 2200 2d333037 29005f5f 53495a45 4f465f50  -307).__SIZEOF_P
 2210 4f494e54 45525f5f 2034005f 5f554143  OINTER__ 4.__UAC
 2220 43554d5f 4d41585f 5f203058 46464646  CUM_MAX__ 0XFFFF
 2230 46464646 502d3136 554b005f 5f564650  FFFFP-16UK.__VFP
 2240 5f46505f 5f203100 5f5f554c 46524143  _FP__ 1.__ULFRAC
 2250 545f4d41 585f5f20 30584646 46464646  T_MAX__ 0XFFFFFF
 2260 4646502d 3332554c 52005f5f 48415f46  FFP-32ULR.__HA_F
 2270 4249545f 5f203700 5f5f5054 52444946  BIT__ 7.__PTRDIF
 2280 465f5749 4454485f 5f203332 005f5f46  F_WIDTH__ 32.__F
 2290 4c543332 5f44454e 4f524d5f 4d494e5f  LT32_DENORM_MIN_
 22a0 5f20312e 34303132 39383436 34333234  _ 1.401298464324
 22b0 38313731 652d3435 46333200 5f5f5341  8171e-45F32.__SA
 22c0 4343554d 5f4d494e 5f5f2028 2d305831  CCUM_MIN__ (-0X1
 22d0 5037484b 2d305831 5037484b 29005f5f  P7HK-0X1P7HK).__
 22e0 494e545f 57494454 485f5f20 3332005f  INT_WIDTH__ 32._
 22f0 5f474343 5f41544f 4d49435f 504f494e  _GCC_ATOMIC_POIN
 2300 5445525f 4c4f434b 5f465245 45203200  TER_LOCK_FREE 2.
 2310 5f5f5549 4e543634 5f432863 29206320  __UINT64_C(c) c 
 2320 23232055 4c4c005f 5f4c4143 43554d5f  ## ULL.__LACCUM_
 2330 45505349 4c4f4e5f 5f203078 31502d33  EPSILON__ 0x1P-3
 2340 314c4b00 6d61696e 005f5f53 46524143  1LK.main.__SFRAC
 2350 545f4550 53494c4f 4e5f5f20 30783150  T_EPSILON__ 0x1P
 2360 2d374852 005f5f55 51515f49 4249545f  -7HR.__UQQ_IBIT_
 2370 5f203000 5f5f464c 54333258 5f4d4158  _ 0.__FLT32X_MAX
 2380 5f5f2031 2e373937 36393331 33343836  __ 1.79769313486
 2390 32333135 37652b33 30384633 3278005f  23157e+308F32x._
 23a0 5f555351 5f464249 545f5f20 3332005f  _USQ_FBIT__ 32._
 23b0 5f535444 435f5645 5253494f 4e5f5f20  _STDC_VERSION__ 
 23c0 32303137 31304c00 5f5f4743 435f4154  201710L.__GCC_AT
 23d0 4f4d4943 5f434841 5233325f 545f4c4f  OMIC_CHAR32_T_LO
 23e0 434b5f46 52454520 32005354 4d333246  CK_FREE 2.STM32F
 23f0 34313156 45547820 31005f5f 53495a45  411VETx 1.__SIZE
 2400 4f465f53 495a455f 545f5f20 34005354  OF_SIZE_T__ 4.ST
 2410 4d333246 34313178 45203100 5f5f4652  M32F411xE 1.__FR
 2420 4143545f 45505349 4c4f4e5f 5f203078  ACT_EPSILON__ 0x
 2430 31502d31 3552005f 5f535444 435f484f  1P-15R.__STDC_HO
 2440 53544544 5f5f2031 005f5f49 4e545054  STED__ 1.__INTPT
 2450 525f4d41 585f5f20 30783766 66666666  R_MAX__ 0x7fffff
 2460 6666005f 5f505241 474d415f 52454445  ff.__PRAGMA_REDE
 2470 46494e45 5f455854 4e414d45 2031005f  FINE_EXTNAME 1._
 2480 5f464c54 36345f45 5053494c 4f4e5f5f  _FLT64_EPSILON__
 2490 20322e32 32303434 36303439 32353033   2.2204460492503
 24a0 31333165 2d313646 3634005f 5f474343  131e-16F64.__GCC
 24b0 5f41544f 4d49435f 4c4c4f4e 475f4c4f  _ATOMIC_LLONG_LO
 24c0 434b5f46 52454520 31005f5f 464c545f  CK_FREE 1.__FLT_
 24d0 4d41585f 4558505f 5f203132 38005f5f  MAX_EXP__ 128.__
 24e0 41544f4d 49435f41 43515f52 454c2034  ATOMIC_ACQ_REL 4
 24f0 005f5f55 494e545f 46415354 36345f54  .__UINT_FAST64_T
 2500 5950455f 5f206c6f 6e67206c 6f6e6720  YPE__ long long 
 2510 756e7369 676e6564 20696e74 005f5f55  unsigned int.__U
 2520 494e544d 41585f54 5950455f 5f206c6f  INTMAX_TYPE__ lo
 2530 6e67206c 6f6e6720 756e7369 676e6564  ng long unsigned
 2540 20696e74 005f5f46 4c543332 585f4e4f   int.__FLT32X_NO
 2550 524d5f4d 41585f5f 20312e37 39373639  RM_MAX__ 1.79769
 2560 33313334 38363233 31353765 2b333038  31348623157e+308
 2570 46333278 005f5f4c 44424c5f 45505349  F32x.__LDBL_EPSI
 2580 4c4f4e5f 5f20322e 32323034 34363034  LON__ 2.22044604
 2590 39323530 33313331 652d3136 4c005f5f  92503131e-16L.__
 25a0 494e5450 54525f54 5950455f 5f20696e  INTPTR_TYPE__ in
 25b0 74005f5f 41524d5f 5043535f 56465020  t.__ARM_PCS_VFP 
 25c0 31005f5f 4445435f 4556414c 5f4d4554  1.__DEC_EVAL_MET
 25d0 484f445f 5f203200 5f5f5553 41434355  HOD__ 2.__USACCU
 25e0 4d5f4d49 4e5f5f20 302e3055 484b005f  M_MIN__ 0.0UHK._
 25f0 5f555346 52414354 5f494249 545f5f20  _USFRACT_IBIT__ 
 2600 30005f5f 494e545f 4c454153 5433325f  0.__INT_LEAST32_
 2610 57494454 485f5f20 3332005f 5f55494e  WIDTH__ 32.__UIN
 2620 545f4c45 41535438 5f545950 455f5f20  T_LEAST8_TYPE__ 
 2630 756e7369 676e6564 20636861 72005f5f  unsigned char.__
 2640 44515f49 4249545f 5f203000 5f5f464c  DQ_IBIT__ 0.__FL
 2650 545f4d41 585f5f20 332e3430 32383233  T_MAX__ 3.402823
 2660 34363633 38353238 3836652b 33384600  4663852886e+38F.
 2670 5f5f464c 5433325f 4d494e5f 5f20312e  __FLT32_MIN__ 1.
 2680 31373534 39343335 30383232 32383735  1754943508222875
 2690 652d3338 46333200 5f5f5349 5a455f54  e-38F32.__SIZE_T
 26a0 5950455f 5f20756e 7369676e 65642069  YPE__ unsigned i
 26b0 6e74005f 5f554c4c 41434355 4d5f4642  nt.__ULLACCUM_FB
 26c0 49545f5f 20333200 5f5f464c 5436345f  IT__ 32.__FLT64_
 26d0 4d494e5f 4558505f 5f20282d 31303231  MIN_EXP__ (-1021
 26e0 29005f5f 46524143 545f4642 49545f5f  ).__FRACT_FBIT__
 26f0 20313500 5f5f4743 435f4154 4f4d4943   15.__GCC_ATOMIC
 2700 5f53484f 52545f4c 4f434b5f 46524545  _SHORT_LOCK_FREE
 2710 2032005f 5f555441 5f494249 545f5f20   2.__UTA_IBIT__ 
 2720 3634005f 5f464c54 5f4d494e 5f31305f  64.__FLT_MIN_10_
 2730 4558505f 5f20282d 33372900 5f5f464c  EXP__ (-37).__FL
 2740 54333258 5f4d494e 5f455850 5f5f2028  T32X_MIN_EXP__ (
 2750 2d313032 3129005f 5f464c54 3332585f  -1021).__FLT32X_
 2760 45505349 4c4f4e5f 5f20322e 32323034  EPSILON__ 2.2204
 2770 34363034 39323530 33313331 652d3136  460492503131e-16
 2780 46333278 005f5f46 4c545f45 56414c5f  F32x.__FLT_EVAL_
 2790 4d455448 4f445f54 535f3138 3636315f  METHOD_TS_18661_
 27a0 335f5f20 30005f5f 44424c5f 4841535f  3__ 0.__DBL_HAS_
 27b0 494e4649 4e495459 5f5f2031 005f5f41  INFINITY__ 1.__A
 27c0 524d5f46 45415455 52455f51 42495420  RM_FEATURE_QBIT 
 27d0 31005f5f 494e545f 46415354 33325f54  1.__INT_FAST32_T
 27e0 5950455f 5f20696e 74005f5f 464c545f  YPE__ int.__FLT_
 27f0 4841535f 51554945 545f4e41 4e5f5f20  HAS_QUIET_NAN__ 
 2800 31005f5f 53495a45 4f465f49 4e545f5f  1.__SIZEOF_INT__
 2810 2034005f 5f494e54 4d41585f 54595045   4.__INTMAX_TYPE
 2820 5f5f206c 6f6e6720 6c6f6e67 20696e74  __ long long int
 2830 005f5f44 424c5f45 5053494c 4f4e5f5f  .__DBL_EPSILON__
 2840 20282864 6f75626c 6529322e 32323034   ((double)2.2204
 2850 34363034 39323530 33313331 652d3136  460492503131e-16
 2860 4c29005f 5f494e54 4d41585f 43286329  L).__INTMAX_C(c)
 2870 20632023 23204c4c 005f5f41 5043535f   c ## LL.__APCS_
 2880 33325f5f 2031005f 5f554143 43554d5f  32__ 1.__UACCUM_
 2890 46424954 5f5f2031 36005f5f 44424c5f  FBIT__ 16.__DBL_
 28a0 44454e4f 524d5f4d 494e5f5f 20282864  DENORM_MIN__ ((d
 28b0 6f75626c 6529342e 39343036 35363435  ouble)4.94065645
 28c0 38343132 34363534 652d3332 344c2900  84124654e-324L).
 28d0 5f5f5549 4e543634 5f545950 455f5f20  __UINT64_TYPE__ 
 28e0 6c6f6e67 206c6f6e 6720756e 7369676e  long long unsign
 28f0 65642069 6e74005f 5f464c54 3332585f  ed int.__FLT32X_
 2900 4841535f 51554945 545f4e41 4e5f5f20  HAS_QUIET_NAN__ 
 2910 31005f5f 44424c5f 4d41585f 31305f45  1.__DBL_MAX_10_E
 2920 58505f5f 20333038 005f5f46 4c543332  XP__ 308.__FLT32
 2930 585f4d49 4e5f5f20 322e3232 35303733  X_MIN__ 2.225073
 2940 38353835 30373230 3134652d 33303846  8585072014e-308F
 2950 33327800 5f5f5448 554d425f 494e5445  32x.__THUMB_INTE
 2960 52574f52 4b5f5f20 31005f5f 54415f49  RWORK__ 1.__TA_I
 2970 4249545f 5f203634 005f5f51 515f4642  BIT__ 64.__QQ_FB
 2980 49545f5f 2037005f 5f464c54 3332585f  IT__ 7.__FLT32X_
 2990 4841535f 494e4649 4e495459 5f5f2031  HAS_INFINITY__ 1
 29a0 005f5f55 494e545f 4c454153 5431365f  .__UINT_LEAST16_
 29b0 54595045 5f5f2073 686f7274 20756e73  TYPE__ short uns
 29c0 69676e65 6420696e 74005f5f 41524d5f  igned int.__ARM_
 29d0 41524348 5f50524f 46494c45 20373700  ARCH_PROFILE 77.
 29e0 5f5f494e 545f4641 5354385f 57494454  __INT_FAST8_WIDT
 29f0 485f5f20 3332005f 5f464c54 5f4d494e  H__ 32.__FLT_MIN
 2a00 5f455850 5f5f2028 2d313235 29005f5f  _EXP__ (-125).__
 2a10 41524d5f 46454154 5552455f 4d41544d  ARM_FEATURE_MATM
 2a20 554c5f49 4e543800 5f5f4445 43494d41  UL_INT8.__DECIMA
 2a30 4c5f4449 475f5f20 3137005f 5f494e54  L_DIG__ 17.__INT
 2a40 33325f43 28632920 63202323 204c005f  32_C(c) c ## L._
 2a50 5f41524d 5f465031 365f464f 524d4154  _ARM_FP16_FORMAT
 2a60 5f414c54 45524e41 54495645 005f5f4c  _ALTERNATIVE.__L
 2a70 44424c5f 4d41585f 31305f45 58505f5f  DBL_MAX_10_EXP__
 2a80 20333038 005f5f46 4c543332 585f4d41   308.__FLT32X_MA
 2a90 585f3130 5f455850 5f5f2033 3038005f  X_10_EXP__ 308._
 2aa0 5f55494e 54505452 5f4d4158 5f5f2030  _UINTPTR_MAX__ 0
 2ab0 78666666 66666666 6655005f 5f44424c  xffffffffU.__DBL
 2ac0 5f484153 5f44454e 4f524d5f 5f203100  _HAS_DENORM__ 1.
 2ad0 5f5f4152 4d5f4645 41545552 455f4352  __ARM_FEATURE_CR
 2ae0 43333200 5f5f464c 5433325f 4d41585f  C32.__FLT32_MAX_
 2af0 31305f45 58505f5f 20333800 5f5f4152  10_EXP__ 38.__AR
 2b00 4d5f4645 41545552 455f5341 54203100  M_FEATURE_SAT 1.
 2b10 5f5f4c46 52414354 5f4d4158 5f5f2030  __LFRACT_MAX__ 0
 2b20 58374646 46464646 46502d33 314c5200  X7FFFFFFFP-31LR.
 2b30 5f5f4152 4d5f4152 43485f37 454d5f5f  __ARM_ARCH_7EM__
 2b40 2031005f 5f494e54 5f4c4541 53543332   1.__INT_LEAST32
 2b50 5f4d4158 5f5f2030 78376666 66666666  _MAX__ 0x7ffffff
 2b60 664c005f 5f4c4c41 4343554d 5f464249  fL.__LLACCUM_FBI
 2b70 545f5f20 3331005f 5f55494e 544d4158  T__ 31.__UINTMAX
 2b80 5f4d4158 5f5f2030 78666666 66666666  _MAX__ 0xfffffff
 2b90 66666666 66666666 66554c4c 005f5f53  fffffffffULL.__S
 2ba0 49475f41 544f4d49 435f5459 50455f5f  IG_ATOMIC_TYPE__
 2bb0 20696e74 005f5f4c 4c465241 43545f4d   int.__LLFRACT_M
 2bc0 494e5f5f 20282d30 2e354c4c 522d302e  IN__ (-0.5LLR-0.
 2bd0 354c4c52 29005f5f 41524d5f 46454154  5LLR).__ARM_FEAT
 2be0 5552455f 464d4120 31005f5f 44424c5f  URE_FMA 1.__DBL_
 2bf0 44454349 4d414c5f 4449475f 5f203137  DECIMAL_DIG__ 17
 2c00 005f5f4c 44424c5f 4841535f 44454e4f  .__LDBL_HAS_DENO
 2c10 524d5f5f 2031005f 5f55494e 545f4c45  RM__ 1.__UINT_LE
 2c20 41535431 365f4d41 585f5f20 30786666  AST16_MAX__ 0xff
 2c30 6666005f 5f41524d 5f464541 54555245  ff.__ARM_FEATURE
 2c40 5f4c4452 4558005f 5f4c4442 4c5f4e4f  _LDREX.__LDBL_NO
 2c50 524d5f4d 41585f5f 20312e37 39373639  RM_MAX__ 1.79769
 2c60 33313334 38363233 31353765 2b333038  31348623157e+308
 2c70 4c005f5f 554c4c41 4343554d 5f455053  L.__ULLACCUM_EPS
 2c80 494c4f4e 5f5f2030 7831502d 3332554c  ILON__ 0x1P-32UL
 2c90 4c4b005f 5f555341 4343554d 5f464249  LK.__USACCUM_FBI
 2ca0 545f5f20 38005f5f 464c545f 4841535f  T__ 8.__FLT_HAS_
 2cb0 44454e4f 524d5f5f 2031005f 5f494e54  DENORM__ 1.__INT
 2cc0 5f464153 5436345f 57494454 485f5f20  _FAST64_WIDTH__ 
 2cd0 3634005f 5f554652 4143545f 4d41585f  64.__UFRACT_MAX_
 2ce0 5f203058 46464646 502d3136 55520073  _ 0XFFFFP-16UR.s
 2cf0 74617274 75702e73 00474e55 20415320  tartup.s.GNU AS 
 2d00 322e3335 2e3100                      2.35.1.         
Contents of section .debug_frame:
 0000 0c000000 ffffffff 0100027c 0e0c0d00  ...........|....
 0010 24000000 00000000 94010008 1c000000  $...............
 0020 410e0487 01410e10 410d0747 0e04410d  A....A..A..G..A.
 0030 0d42c70e 00000000 20000000 00000000  .B...... .......
 0040 b0010008 32000000 410e0887 028e0141  ....2...A......A
 0050 0e18410d 07540e08 410d0d00           ..A..T..A...    

Disassembly of section .init:

0800018c <_init>:
 800018c:	b5f8      	push	{r3, r4, r5, r6, r7, lr}
 800018e:	bf00      	nop

Disassembly of section .fini:

08000190 <_fini>:
 8000190:	b5f8      	push	{r3, r4, r5, r6, r7, lr}
 8000192:	bf00      	nop

Disassembly of section .text.sum:

08000194 <sum>:
 8000194:	b480      	push	{r7}
 8000196:	b083      	sub	sp, #12
 8000198:	af00      	add	r7, sp, #0
 800019a:	6078      	str	r0, [r7, #4]
 800019c:	6039      	str	r1, [r7, #0]
 800019e:	687a      	ldr	r2, [r7, #4]
 80001a0:	683b      	ldr	r3, [r7, #0]
 80001a2:	4413      	add	r3, r2
 80001a4:	4618      	mov	r0, r3
 80001a6:	370c      	adds	r7, #12
 80001a8:	46bd      	mov	sp, r7
 80001aa:	f85d 7b04 	ldr.w	r7, [sp], #4
 80001ae:	4770      	bx	lr

Disassembly of section .text.main:

080001b0 <main>:
 80001b0:	b580      	push	{r7, lr}
 80001b2:	b084      	sub	sp, #16
 80001b4:	af00      	add	r7, sp, #0
 80001b6:	2303      	movs	r3, #3
 80001b8:	60fb      	str	r3, [r7, #12]
 80001ba:	2305      	movs	r3, #5
 80001bc:	60bb      	str	r3, [r7, #8]
 80001be:	68fa      	ldr	r2, [r7, #12]
 80001c0:	68bb      	ldr	r3, [r7, #8]
 80001c2:	4413      	add	r3, r2
 80001c4:	607b      	str	r3, [r7, #4]
 80001c6:	68fa      	ldr	r2, [r7, #12]
 80001c8:	68bb      	ldr	r3, [r7, #8]
 80001ca:	1ad3      	subs	r3, r2, r3
 80001cc:	607b      	str	r3, [r7, #4]
 80001ce:	68b9      	ldr	r1, [r7, #8]
 80001d0:	68f8      	ldr	r0, [r7, #12]
 80001d2:	f7ff ffdf 	bl	8000194 <sum>
 80001d6:	6078      	str	r0, [r7, #4]
 80001d8:	2300      	movs	r3, #0
 80001da:	4618      	mov	r0, r3
 80001dc:	3710      	adds	r7, #16
 80001de:	46bd      	mov	sp, r7
 80001e0:	bd80      	pop	{r7, pc}
